; Function Attrs: nounwind sspstrong uwtable
define dso_local zeroext i1 @bdrv_dirty_bitmap_get(ptr noundef readonly captures(none) %bitmap, i64 noundef %offset) local_unnamed_addr #0 {
entry:
  %0 = load ptr, ptr %bitmap, align 8
  %1 = load atomic i64, ptr @qemu_mutex_lock_func monotonic, align 8
  %2 = inttoptr i64 %1 to ptr
  %dirty_bitmap_mutex.i = getelementptr inbounds nuw i8, ptr %0, i64 16904
  tail call void %2(ptr noundef nonnull %dirty_bitmap_mutex.i, ptr noundef nonnull @.str.1, i32 noundef 66) #14
  %bitmap1.i = getelementptr inbounds nuw i8, ptr %bitmap, i64 8
  %3 = load ptr, ptr %bitmap1.i, align 8
  %call.i = tail call zeroext i1 @hbitmap_get(ptr noundef %3, i64 noundef %offset) #14
  %4 = load ptr, ptr %bitmap, align 8
  %dirty_bitmap_mutex.i3 = getelementptr inbounds nuw i8, ptr %4, i64 16904
  tail call void @qemu_mutex_unlock_impl(ptr noundef nonnull %dirty_bitmap_mutex.i3, ptr noundef nonnull @.str.1, i32 noundef 71) #14
  ret i1 %call.i
}